; Function Attrs: mustprogress nofree norecurse nosync nounwind willreturn memory(argmem: read) uwtable
define hidden noundef zeroext i1 @_ZNK2pb3pbc14is_cardinalityEv(ptr noundef nonnull readonly align 8 captures(address) dereferenceable(76) %0) local_unnamed_addr #9 align 2 {
  %2 = getelementptr inbounds nuw i8, ptr %0, i64 32
  %3 = load i32, ptr %2, align 8, !tbaa !20
  %4 = icmp eq i32 %3, 0
  br i1 %4, label %.critedge, label %.lr.ph.preheader

.lr.ph.preheader:                                 ; preds = %1
  %.ptr = getelementptr inbounds nuw i8, ptr %0, i64 76
  %.sroa.0.0.copyload.i = load i64, ptr %.ptr, align 4
  %.sroa.08.0.extract.trunc = trunc i64 %.sroa.0.0.copyload.i to i32
  %5 = zext i32 %3 to i64
  %.idx = shl nuw nsw i64 %5, 3
  %6 = getelementptr inbounds nuw i8, ptr %0, i64 %.idx
  %.ptr21 = getelementptr inbounds nuw i8, ptr %6, i64 76
  br label %.lr.ph

.lr.ph:                                           ; preds = %.lr.ph, %.lr.ph.preheader
  %.01318 = phi ptr [ %.ptr, %.lr.ph.preheader ], [ %7, %.lr.ph ]
  %.sroa.0.0.copyload = load i32, ptr %.01318, align 4
  %.not16 = icmp eq i32 %.sroa.0.0.copyload, %.sroa.08.0.extract.trunc
  %7 = getelementptr inbounds nuw i8, ptr %.01318, i64 8
  %.not = icmp ne ptr %7, %.ptr21
  %or.cond.not = select i1 %.not16, i1 %.not, i1 false
  br i1 %or.cond.not, label %.lr.ph, label %.critedge

.critedge:                                        ; preds = %.lr.ph, %1
  %.0 = phi i1 [ false, %1 ], [ %.not16, %.lr.ph ]
  ret i1 %.0
}